; ModuleID = '15/735.c'
source_filename = "15/735.c"
target datalayout = "e-m:e-p270:32:32-p271:32:32-p272:64:64-i64:64-f80:128-n8:16:32:64-S128"
target triple = "x86_64-pc-linux-gnu"

@.str = private unnamed_addr constant [3 x i8] c"%d\00", align 1

; Function Attrs: noinline nounwind uwtable
define dso_local i32 @main() #0 {
  %1 = alloca i32, align 4
  %2 = alloca i32, align 4
  %3 = alloca [1000 x [1000 x i32]], align 16
  %4 = alloca i32, align 4
  %5 = alloca i32, align 4
  %6 = alloca i32, align 4
  %7 = alloca i32, align 4
  %8 = alloca i32, align 4
  %9 = alloca i32, align 4
  %10 = alloca i32, align 4
  store i32 0, i32* %1, align 4
  %11 = call i32 (i8*, ...) @__isoc99_scanf(i8* getelementptr inbounds ([3 x i8], [3 x i8]* @.str, i64 0, i64 0), i32* %2)
  store i32 0, i32* %4, align 4
  br label %12

12:                                               ; preds = %33, %0
  %13 = load i32, i32* %4, align 4
  %14 = load i32, i32* %2, align 4
  %15 = icmp slt i32 %13, %14
  br i1 %15, label %16, label %36

16:                                               ; preds = %12
  store i32 0, i32* %5, align 4
  br label %17

17:                                               ; preds = %29, %16
  %18 = load i32, i32* %5, align 4
  %19 = load i32, i32* %2, align 4
  %20 = icmp slt i32 %18, %19
  br i1 %20, label %21, label %32

21:                                               ; preds = %17
  %22 = load i32, i32* %4, align 4
  %23 = sext i32 %22 to i64
  %24 = getelementptr inbounds [1000 x [1000 x i32]], [1000 x [1000 x i32]]* %3, i64 0, i64 %23
  %25 = load i32, i32* %5, align 4
  %26 = sext i32 %25 to i64
  %27 = getelementptr inbounds [1000 x i32], [1000 x i32]* %24, i64 0, i64 %26
  %28 = call i32 (i8*, ...) @__isoc99_scanf(i8* getelementptr inbounds ([3 x i8], [3 x i8]* @.str, i64 0, i64 0), i32* %27)
  br label %29

29:                                               ; preds = %21
  %30 = load i32, i32* %5, align 4
  %31 = add nsw i32 %30, 1
  store i32 %31, i32* %5, align 4
  br label %17

32:                                               ; preds = %17
  br label %33

33:                                               ; preds = %32
  %34 = load i32, i32* %4, align 4
  %35 = add nsw i32 %34, 1
  store i32 %35, i32* %4, align 4
  br label %12

36:                                               ; preds = %12
  store i32 0, i32* %4, align 4
  br label %37

37:                                               ; preds = %143, %36
  %38 = load i32, i32* %4, align 4
  %39 = load i32, i32* %2, align 4
  %40 = icmp slt i32 %38, %39
  br i1 %40, label %41, label %146

41:                                               ; preds = %37
  store i32 0, i32* %5, align 4
  br label %42

42:                                               ; preds = %139, %41
  %43 = load i32, i32* %5, align 4
  %44 = load i32, i32* %2, align 4
  %45 = icmp slt i32 %43, %44
  br i1 %45, label %46, label %142

46:                                               ; preds = %42
  %47 = load i32, i32* %4, align 4
  %48 = sext i32 %47 to i64
  %49 = getelementptr inbounds [1000 x [1000 x i32]], [1000 x [1000 x i32]]* %3, i64 0, i64 %48
  %50 = load i32, i32* %5, align 4
  %51 = sext i32 %50 to i64
  %52 = getelementptr inbounds [1000 x i32], [1000 x i32]* %49, i64 0, i64 %51
  %53 = load i32, i32* %52, align 4
  %54 = icmp eq i32 %53, 0
  br i1 %54, label %55, label %92

55:                                               ; preds = %46
  %56 = load i32, i32* %4, align 4
  %57 = add nsw i32 %56, 1
  %58 = sext i32 %57 to i64
  %59 = getelementptr inbounds [1000 x [1000 x i32]], [1000 x [1000 x i32]]* %3, i64 0, i64 %58
  %60 = load i32, i32* %5, align 4
  %61 = sext i32 %60 to i64
  %62 = getelementptr inbounds [1000 x i32], [1000 x i32]* %59, i64 0, i64 %61
  %63 = load i32, i32* %62, align 4
  %64 = load i32, i32* %4, align 4
  %65 = sext i32 %64 to i64
  %66 = getelementptr inbounds [1000 x [1000 x i32]], [1000 x [1000 x i32]]* %3, i64 0, i64 %65
  %67 = load i32, i32* %5, align 4
  %68 = sext i32 %67 to i64
  %69 = getelementptr inbounds [1000 x i32], [1000 x i32]* %66, i64 0, i64 %68
  %70 = load i32, i32* %69, align 4
  %71 = icmp eq i32 %63, %70
  br i1 %71, label %72, label %92

72:                                               ; preds = %55
  %73 = load i32, i32* %4, align 4
  %74 = sext i32 %73 to i64
  %75 = getelementptr inbounds [1000 x [1000 x i32]], [1000 x [1000 x i32]]* %3, i64 0, i64 %74
  %76 = load i32, i32* %5, align 4
  %77 = add nsw i32 %76, 1
  %78 = sext i32 %77 to i64
  %79 = getelementptr inbounds [1000 x i32], [1000 x i32]* %75, i64 0, i64 %78
  %80 = load i32, i32* %79, align 4
  %81 = load i32, i32* %4, align 4
  %82 = sext i32 %81 to i64
  %83 = getelementptr inbounds [1000 x [1000 x i32]], [1000 x [1000 x i32]]* %3, i64 0, i64 %82
  %84 = load i32, i32* %5, align 4
  %85 = sext i32 %84 to i64
  %86 = getelementptr inbounds [1000 x i32], [1000 x i32]* %83, i64 0, i64 %85
  %87 = load i32, i32* %86, align 4
  %88 = icmp eq i32 %80, %87
  br i1 %88, label %89, label %92

89:                                               ; preds = %72
  %90 = load i32, i32* %4, align 4
  store i32 %90, i32* %7, align 4
  %91 = load i32, i32* %5, align 4
  store i32 %91, i32* %9, align 4
  br label %92

92:                                               ; preds = %89, %72, %55, %46
  %93 = load i32, i32* %4, align 4
  %94 = sext i32 %93 to i64
  %95 = getelementptr inbounds [1000 x [1000 x i32]], [1000 x [1000 x i32]]* %3, i64 0, i64 %94
  %96 = load i32, i32* %5, align 4
  %97 = sext i32 %96 to i64
  %98 = getelementptr inbounds [1000 x i32], [1000 x i32]* %95, i64 0, i64 %97
  %99 = load i32, i32* %98, align 4
  %100 = icmp eq i32 %99, 0
  br i1 %100, label %101, label %138

101:                                              ; preds = %92
  %102 = load i32, i32* %4, align 4
  %103 = sub nsw i32 %102, 1
  %104 = sext i32 %103 to i64
  %105 = getelementptr inbounds [1000 x [1000 x i32]], [1000 x [1000 x i32]]* %3, i64 0, i64 %104
  %106 = load i32, i32* %5, align 4
  %107 = sext i32 %106 to i64
  %108 = getelementptr inbounds [1000 x i32], [1000 x i32]* %105, i64 0, i64 %107
  %109 = load i32, i32* %108, align 4
  %110 = load i32, i32* %4, align 4
  %111 = sext i32 %110 to i64
  %112 = getelementptr inbounds [1000 x [1000 x i32]], [1000 x [1000 x i32]]* %3, i64 0, i64 %111
  %113 = load i32, i32* %5, align 4
  %114 = sext i32 %113 to i64
  %115 = getelementptr inbounds [1000 x i32], [1000 x i32]* %112, i64 0, i64 %114
  %116 = load i32, i32* %115, align 4
  %117 = icmp eq i32 %109, %116
  br i1 %117, label %118, label %138

118:                                              ; preds = %101
  %119 = load i32, i32* %4, align 4
  %120 = sext i32 %119 to i64
  %121 = getelementptr inbounds [1000 x [1000 x i32]], [1000 x [1000 x i32]]* %3, i64 0, i64 %120
  %122 = load i32, i32* %5, align 4
  %123 = sub nsw i32 %122, 1
  %124 = sext i32 %123 to i64
  %125 = getelementptr inbounds [1000 x i32], [1000 x i32]* %121, i64 0, i64 %124
  %126 = load i32, i32* %125, align 4
  %127 = load i32, i32* %4, align 4
  %128 = sext i32 %127 to i64
  %129 = getelementptr inbounds [1000 x [1000 x i32]], [1000 x [1000 x i32]]* %3, i64 0, i64 %128
  %130 = load i32, i32* %5, align 4
  %131 = sext i32 %130 to i64
  %132 = getelementptr inbounds [1000 x i32], [1000 x i32]* %129, i64 0, i64 %131
  %133 = load i32, i32* %132, align 4
  %134 = icmp eq i32 %126, %133
  br i1 %134, label %135, label %138

135:                                              ; preds = %118
  %136 = load i32, i32* %4, align 4
  store i32 %136, i32* %8, align 4
  %137 = load i32, i32* %5, align 4
  store i32 %137, i32* %10, align 4
  br label %138

138:                                              ; preds = %135, %118, %101, %92
  br label %139

139:                                              ; preds = %138
  %140 = load i32, i32* %5, align 4
  %141 = add nsw i32 %140, 1
  store i32 %141, i32* %5, align 4
  br label %42

142:                                              ; preds = %42
  br label %143

143:                                              ; preds = %142
  %144 = load i32, i32* %4, align 4
  %145 = add nsw i32 %144, 1
  store i32 %145, i32* %4, align 4
  br label %37

146:                                              ; preds = %37
  %147 = load i32, i32* %8, align 4
  %148 = load i32, i32* %7, align 4
  %149 = sub nsw i32 %147, %148
  %150 = sub nsw i32 %149, 1
  %151 = load i32, i32* %10, align 4
  %152 = load i32, i32* %9, align 4
  %153 = sub nsw i32 %151, %152
  %154 = sub nsw i32 %153, 1
  %155 = mul nsw i32 %150, %154
  store i32 %155, i32* %6, align 4
  %156 = load i32, i32* %6, align 4
  %157 = call i32 (i8*, ...) @printf(i8* getelementptr inbounds ([3 x i8], [3 x i8]* @.str, i64 0, i64 0), i32 %156)
  ret i32 0
}

declare dso_local i32 @__isoc99_scanf(i8*, ...) #1

declare dso_local i32 @printf(i8*, ...) #1


!llvm.module.flags = !{!0}
!llvm.ident = !{!1}

!0 = !{i32 1, !"wchar_size", i32 4}
!1 = !{!"clang version 10.0.0-4ubuntu1 "}
